Certificate:
    Data:
        Version: 3 (0x2)
        Serial Number:
            8f:0b:26:6d:1f:77:ce:c7
        Signature Algorithm: sha256WithRSAEncryption
        Issuer: C=MM, ST=Burma, L=Mandalay, O=KBZPay, OU=KBZPay_PGW_CA, CN=api.kbzpay.com/emailAddress=jiangbin@huawei.com
        Validity
            Not Before: Nov 17 13:17:26 2020 GMT
            Not After : Oct 24 13:17:26 2120 GMT
        Subject: C=MM, ST=Burma, O=KBZPay, OU=KBZPay_PGW_200112, CN=api.kbzpay.com/emailAddress=jiangbin@huawei.com
        Subject Public Key Info:
            Public Key Algorithm: rsaEncryption
                RSA Public-Key: (2048 bit)
                Modulus:
                    00:cf:dd:24:79:5d:d9:bf:aa:29:eb:85:a8:39:2f:
                    84:05:2b:d6:6e:1b:8e:44:ba:9a:a8:2a:c0:49:b7:
                    db:87:f6:b9:a5:18:96:69:d0:b2:c4:52:46:2f:3c:
                    4c:6a:49:45:c2:cb:bf:ab:6e:a4:72:1f:08:14:ac:
                    01:49:3d:55:11:55:01:e6:a3:d7:83:d1:0b:3d:d1:
                    82:dc:12:5d:d7:6a:c6:8e:6a:77:b0:f1:ce:ae:46:
                    0e:40:0c:38:33:da:fc:b4:f0:0e:a1:b1:4e:d1:f8:
                    99:7a:8c:28:10:9f:1d:3d:c5:37:4f:bc:36:00:2b:
                    c4:bd:e7:4e:e7:a6:83:22:5b:58:05:67:b9:cf:7c:
                    42:bc:8e:71:94:39:7c:7c:2d:f9:47:8f:23:04:88:
                    05:fc:8d:92:b2:53:fb:6c:7f:82:f7:1b:fc:69:35:
                    18:22:9d:06:16:c4:9a:0b:9b:a0:77:3d:1d:a1:e3:
                    83:ad:de:6d:65:14:c4:95:3e:d7:ef:ab:1b:6a:64:
                    8d:3b:1b:ca:07:71:71:64:2f:8b:2d:87:4d:e2:90:
                    c0:b9:b4:9f:4a:c8:9c:d5:5d:71:f8:76:30:f7:84:
                    57:61:1c:7c:5e:e5:17:b0:23:11:5d:4e:ed:ce:f0:
                    14:19:3d:51:03:fa:ad:d7:42:82:d5:b0:5f:32:08:
                    c5:99
                Exponent: 65537 (0x10001)
        X509v3 extensions:
            X509v3 Basic Constraints: 
                CA:FALSE
            Netscape Comment: 
                OpenSSL Generated Certificate
            X509v3 Subject Key Identifier: 
                AE:44:FA:52:D6:4F:C6:83:C1:6D:CC:19:FA:B7:A4:E0:4E:FA:DB:72
            X509v3 Authority Key Identifier: 
                keyid:50:82:77:72:75:61:A6:1E:3E:5A:41:9F:75:F8:AE:21:B4:8A:FD:66

    Signature Algorithm: sha256WithRSAEncryption
         cc:b8:03:a4:6b:53:03:33:b0:45:e2:8b:8c:be:85:40:de:fa:
         91:f7:bc:d1:74:55:0f:e8:93:c5:e9:a3:d8:c1:aa:42:69:bb:
         3f:1a:5b:b6:69:71:d2:96:48:f2:b9:ce:0e:5d:d7:df:4f:e7:
         9d:68:7b:dd:c1:6a:32:f4:b3:2f:3e:0a:c9:cd:3a:66:81:2a:
         23:a1:55:0d:d9:01:36:51:ad:27:8a:a8:f1:6b:f7:5b:b1:c3:
         9b:c1:42:e0:ce:87:70:16:7d:e0:e6:82:08:de:4a:13:fb:8b:
         4f:67:58:91:9e:47:70:c1:30:fa:8c:99:43:a0:9e:0e:ed:12:
         c9:95:31:bc:d7:1c:ef:1f:78:37:5a:9d:83:2b:e0:15:0b:0e:
         42:97:65:79:4e:02:e0:fb:5e:42:ff:e4:6e:d4:3c:59:09:62:
         51:b1:55:00:99:5a:e1:09:c6:12:73:5d:e5:77:b4:ab:02:07:
         66:82:de:ab:f0:f0:24:1d:c1:44:20:c9:72:1e:7a:b9:b8:50:
         aa:46:38:af:9e:c3:51:68:f8:14:0b:23:ac:8b:66:7c:eb:8b:
         c1:1a:9b:59:ae:03:fd:33:ef:81:3b:d4:60:03:0f:ef:70:38:
         c7:04:75:16:e9:be:89:e2:01:5b:e7:30:8a:1e:0e:a1:2c:98:
         d0:7f:27:e3
-----BEGIN CERTIFICATE-----
MIIEHzCCAwegAwIBAgIJAI8LJm0fd87HMA0GCSqGSIb3DQEBCwUAMIGWMQswCQYD
VQQGEwJNTTEOMAwGA1UECAwFQnVybWExETAPBgNVBAcMCE1hbmRhbGF5MQ8wDQYD
VQQKDAZLQlpQYXkxFjAUBgNVBAsMDUtCWlBheV9QR1dfQ0ExFzAVBgNVBAMMDmFw
aS5rYnpwYXkuY29tMSIwIAYJKoZIhvcNAQkBFhNqaWFuZ2JpbkBodWF3ZWkuY29t
MCAXDTIwMTExNzEzMTcyNloYDzIxMjAxMDI0MTMxNzI2WjCBhzELMAkGA1UEBhMC
TU0xDjAMBgNVBAgMBUJ1cm1hMQ8wDQYDVQQKDAZLQlpQYXkxGjAYBgNVBAsMEUtC
WlBheV9QR1dfMjAwMTEyMRcwFQYDVQQDDA5hcGkua2J6cGF5LmNvbTEiMCAGCSqG
SIb3DQEJARYTamlhbmdiaW5AaHVhd2VpLmNvbTCCASIwDQYJKoZIhvcNAQEBBQAD
ggEPADCCAQoCggEBAM/dJHld2b+qKeuFqDkvhAUr1m4bjkS6mqgqwEm324f2uaUY
lmnQssRSRi88TGpJRcLLv6tupHIfCBSsAUk9VRFVAeaj14PRCz3RgtwSXddqxo5q
d7Dxzq5GDkAMODPa/LTwDqGxTtH4mXqMKBCfHT3FN0+8NgArxL3nTuemgyJbWAVn
uc98QryOcZQ5fHwt+UePIwSIBfyNkrJT+2x/gvcb/Gk1GCKdBhbEmguboHc9HaHj
g63ebWUUxJU+1++rG2pkjTsbygdxcWQviy2HTeKQwLm0n0rInNVdcfh2MPeEV2Ec
fF7lF7AjEV1O7c7wFBk9UQP6rddCgtWwXzIIxZkCAwEAAaN7MHkwCQYDVR0TBAIw
ADAsBglghkgBhvhCAQ0EHxYdT3BlblNTTCBHZW5lcmF0ZWQgQ2VydGlmaWNhdGUw
HQYDVR0OBBYEFK5E+lLWT8aDwW3MGfq3pOBO+ttyMB8GA1UdIwQYMBaAFFCCd3J1
YaYePlpBn3X4riG0iv1mMA0GCSqGSIb3DQEBCwUAA4IBAQDMuAOka1MDM7BF4ouM
voVA3vqR97zRdFUP6JPF6aPYwapCabs/Glu2aXHSlkjyuc4OXdffT+edaHvdwWoy
9LMvPgrJzTpmgSojoVUN2QE2Ua0niqjxa/dbscObwULgzodwFn3g5oII3koT+4tP
Z1iRnkdwwTD6jJlDoJ4O7RLJlTG81xzvH3g3Wp2DK+AVCw5Cl2V5TgLg+15C/+Ru
1DxZCWJRsVUAmVrhCcYSc13ld7SrAgdmgt6r8PAkHcFEIMlyHnq5uFCqRjivnsNR
aPgUCyOsi2Z864vBGptZrgP9M++BO9RgAw/vcDjHBHUW6b6J4gFb5zCKHg6hLJjQ
fyfj
-----END CERTIFICATE-----
