Certificate:
    Data:
        Version: 3 (0x2)
        Serial Number:
            8f:0b:26:6d:1f:77:ce:e1
        Signature Algorithm: sha256WithRSAEncryption
        Issuer: C=MM, ST=Burma, L=Mandalay, O=UAT_KBZPay, OU=UAT_KBZPay_PGW_CA, CN=api.kbzpay.com/emailAddress=jiangbin@huawei.com
        Validity
            Not Before: Sep  4 09:29:23 2020 GMT
            Not After : Aug 11 09:29:23 2120 GMT
        Subject: C=MM, ST=Burma, O=UAT_KBZPay, OU=UAT_KBZPay_PGW_200121, CN=api.kbzpay.com/emailAddress=jiangbin@huawei.com
        Subject Public Key Info:
            Public Key Algorithm: rsaEncryption
                RSA Public-Key: (2048 bit)
                Modulus:
                    00:a7:89:92:a0:07:58:7b:32:b2:d8:92:e2:fa:84:
                    55:ad:d6:d8:54:23:97:34:8c:10:c9:12:f1:24:7d:
                    a1:e4:6c:be:33:6c:56:f1:7c:ab:78:83:ff:85:f3:
                    43:2a:a1:ed:08:c7:fb:18:9a:2a:c4:20:49:e1:b5:
                    9b:cc:1b:2e:5a:5e:e8:57:2c:e1:e0:a5:62:4a:45:
                    d0:6e:be:71:30:ee:fd:80:df:b2:09:08:66:62:fa:
                    da:a6:77:4b:bd:66:c0:6b:f1:f3:b2:f1:9c:d3:74:
                    ef:b4:82:ec:eb:c2:c3:ca:9a:ce:59:a3:80:ad:4d:
                    e0:6b:c1:35:4d:40:95:c5:01:94:84:0e:0f:d4:4e:
                    a2:fa:e6:ed:95:dd:42:d7:34:f7:a2:52:87:01:e5:
                    90:d2:be:b3:75:67:ce:d6:20:48:3e:0e:ba:46:2e:
                    9f:71:9b:0b:a0:c3:e5:65:e2:57:ad:64:2f:70:5a:
                    5e:74:53:c6:9d:6f:34:0c:3d:9a:ed:bf:7b:4f:58:
                    69:17:30:74:e1:cc:ff:1a:36:34:a3:e7:b4:8d:38:
                    13:c1:07:93:1e:51:04:19:d8:75:3f:c6:4b:df:1d:
                    61:91:03:10:bc:99:97:dc:ac:a5:6d:49:51:b9:57:
                    85:1d:2d:43:85:ae:e9:2e:fc:05:0f:30:79:c6:d1:
                    ad:fb
                Exponent: 65537 (0x10001)
        X509v3 extensions:
            X509v3 Basic Constraints: 
                CA:FALSE
            Netscape Comment: 
                OpenSSL Generated Certificate
            X509v3 Subject Key Identifier: 
                4D:DA:4B:E4:BE:77:AB:04:A1:E9:24:59:CC:80:CB:F5:EB:59:E9:51
            X509v3 Authority Key Identifier: 
                keyid:6D:0B:C4:50:BC:0D:D2:EE:DA:B0:7C:3D:8E:B1:C5:06:47:38:5A:D7

    Signature Algorithm: sha256WithRSAEncryption
         a4:67:8f:8f:1e:a5:1a:8c:b9:c5:12:9b:e9:59:0a:2a:6c:a5:
         28:0d:25:bf:f2:bb:ff:3b:7d:13:ca:73:22:b1:ed:c8:bc:1d:
         2d:68:12:51:15:3d:1f:c1:da:cc:d8:16:a9:1a:00:48:32:25:
         e7:41:29:8b:53:86:36:9b:c1:65:dc:d7:38:2d:b1:52:c2:6e:
         eb:c5:ff:e1:4c:ea:b2:e9:96:2f:24:a6:65:61:ed:3d:3f:95:
         a4:2c:78:f4:4e:38:d5:64:02:bd:f5:b1:88:95:27:51:e1:8d:
         3d:88:86:7a:0c:d3:9c:dd:a3:2c:7c:5d:f0:c8:8b:28:31:c3:
         23:fe:d4:07:c9:85:67:6a:0f:d2:48:32:63:d4:cf:95:9b:ee:
         03:91:ac:77:ec:4e:48:f3:74:6d:89:e1:d1:06:03:73:21:f3:
         62:6d:ed:9d:f4:7b:be:90:1f:50:99:a8:8e:cf:f1:16:03:84:
         27:19:4d:4a:71:6e:1c:7e:42:47:c3:3b:82:a5:1e:3f:f0:b2:
         f2:8b:6e:39:35:0c:a2:2e:32:60:c6:05:f9:b8:38:9b:bc:a7:
         45:6d:95:d0:6a:d3:8e:23:f2:51:f8:27:a8:fc:5a:cc:ee:ea:
         bc:49:63:ff:5f:df:03:c8:19:67:27:50:3e:70:70:3d:a8:f7:
         c6:55:5e:71
-----BEGIN CERTIFICATE-----
MIIELzCCAxegAwIBAgIJAI8LJm0fd87hMA0GCSqGSIb3DQEBCwUAMIGeMQswCQYD
VQQGEwJNTTEOMAwGA1UECAwFQnVybWExETAPBgNVBAcMCE1hbmRhbGF5MRMwEQYD
VQQKDApVQVRfS0JaUGF5MRowGAYDVQQLDBFVQVRfS0JaUGF5X1BHV19DQTEXMBUG
A1UEAwwOYXBpLmtienBheS5jb20xIjAgBgkqhkiG9w0BCQEWE2ppYW5nYmluQGh1
YXdlaS5jb20wIBcNMjAwOTA0MDkyOTIzWhgPMjEyMDA4MTEwOTI5MjNaMIGPMQsw
CQYDVQQGEwJNTTEOMAwGA1UECAwFQnVybWExEzARBgNVBAoMClVBVF9LQlpQYXkx
HjAcBgNVBAsMFVVBVF9LQlpQYXlfUEdXXzIwMDEyMTEXMBUGA1UEAwwOYXBpLmti
enBheS5jb20xIjAgBgkqhkiG9w0BCQEWE2ppYW5nYmluQGh1YXdlaS5jb20wggEi
MA0GCSqGSIb3DQEBAQUAA4IBDwAwggEKAoIBAQCniZKgB1h7MrLYkuL6hFWt1thU
I5c0jBDJEvEkfaHkbL4zbFbxfKt4g/+F80Mqoe0Ix/sYmirEIEnhtZvMGy5aXuhX
LOHgpWJKRdBuvnEw7v2A37IJCGZi+tqmd0u9ZsBr8fOy8ZzTdO+0guzrwsPKms5Z
o4CtTeBrwTVNQJXFAZSEDg/UTqL65u2V3ULXNPeiUocB5ZDSvrN1Z87WIEg+DrpG
Lp9xmwugw+Vl4letZC9wWl50U8adbzQMPZrtv3tPWGkXMHThzP8aNjSj57SNOBPB
B5MeUQQZ2HU/xkvfHWGRAxC8mZfcrKVtSVG5V4UdLUOFruku/AUPMHnG0a37AgMB
AAGjezB5MAkGA1UdEwQCMAAwLAYJYIZIAYb4QgENBB8WHU9wZW5TU0wgR2VuZXJh
dGVkIENlcnRpZmljYXRlMB0GA1UdDgQWBBRN2kvkvnerBKHpJFnMgMv161npUTAf
BgNVHSMEGDAWgBRtC8RQvA3S7tqwfD2OscUGRzha1zANBgkqhkiG9w0BAQsFAAOC
AQEApGePjx6lGoy5xRKb6VkKKmylKA0lv/K7/zt9E8pzIrHtyLwdLWgSURU9H8Ha
zNgWqRoASDIl50Epi1OGNpvBZdzXOC2xUsJu68X/4UzqsumWLySmZWHtPT+VpCx4
9E441WQCvfWxiJUnUeGNPYiGegzTnN2jLHxd8MiLKDHDI/7UB8mFZ2oP0kgyY9TP
lZvuA5Gsd+xOSPN0bYnh0QYDcyHzYm3tnfR7vpAfUJmojs/xFgOEJxlNSnFuHH5C
R8M7gqUeP/Cy8otuOTUMoi4yYMYF+bg4m7ynRW2V0GrTjiPyUfgnqPxazO7qvElj
/1/fA8gZZydQPnBwPaj3xlVecQ==
-----END CERTIFICATE-----
